; Function Attrs: mustprogress uwtable
define void @_Z22grpc_cq_internal_unrefP21grpc_completion_queue(ptr noundef %0) local_unnamed_addr #8 {
  %2 = atomicrmw sub ptr %0, i64 1 acq_rel, align 8
  %3 = icmp eq i64 %2, 1
  br i1 %3, label %4, label %18, !prof !33

4:                                                ; preds = %1
  %5 = getelementptr inbounds nuw i8, ptr %0, i64 144
  %6 = load ptr, ptr %5, align 8, !tbaa !48
  %7 = getelementptr inbounds nuw i8, ptr %6, i64 32
  %8 = load ptr, ptr %7, align 8, !tbaa !49
  %9 = getelementptr inbounds nuw i8, ptr %0, i64 264
  tail call void %8(ptr noundef nonnull %9)
  %10 = getelementptr inbounds nuw i8, ptr %0, i64 216
  %11 = load ptr, ptr %10, align 8, !tbaa !52
  %12 = getelementptr inbounds nuw i8, ptr %11, i64 48
  %13 = load ptr, ptr %12, align 8, !tbaa !53
  %14 = load ptr, ptr %5, align 8, !tbaa !48
  %15 = getelementptr inbounds nuw i8, ptr %14, i64 8
  %16 = load i64, ptr %15, align 8, !tbaa !55
  %17 = getelementptr inbounds nuw i8, ptr %9, i64 %16
  tail call void %13(ptr noundef nonnull %17)
  tail call void @gpr_free(ptr noundef nonnull %0)
  br label %18

18:                                               ; preds = %4, %1
  ret void
}